; Function Attrs: mustprogress nounwind uwtable
define hidden noundef ptr @_ZN6hermes2vm6GCBase14getObjectForIDEj(ptr noundef nonnull align 8 dereferenceable(741) %this, i32 noundef %id) local_unnamed_addr #0 align 2 {
entry:
  %idTracker_ = getelementptr inbounds i8, ptr %this, i64 488
  %call = tail call i64 @_ZN6hermes2vm6GCBase9IDTracker14getObjectForIDEj(ptr noundef nonnull align 8 dereferenceable(192) %idTracker_, i32 noundef %id)
  %0 = and i64 %call, 4294967296
  %tobool.i.not = icmp eq i64 %0, 0
  %pointerBase_ = getelementptr inbounds i8, ptr %this, i64 40
  %1 = load ptr, ptr %pointerBase_, align 8
  %2 = and i64 %call, 4294967295
  %cmp.i.not.i.i.i = icmp eq i64 %2, 0
  %3 = ptrtoint ptr %1 to i64
  %add.i.i.i.i = add i64 %2, %3
  %4 = inttoptr i64 %add.i.i.i.i to ptr
  %5 = or i1 %tobool.i.not, %cmp.i.not.i.i.i
  %retval.0 = select i1 %5, ptr null, ptr %4
  ret ptr %retval.0
}